target datalayout = "e-m:e-p270:32:32-p271:32:32-p272:64:64-i64:64-i128:128-f80:128-n8:16:32:64-S128"
target triple = "x86_64-pc-linux-gnu"

%struct.EC_builtin_curve = type { i32, ptr }

@.str = private unnamed_addr constant [25 x i8] c"../openssl/test/ectest.c\00", align 1
@curves = internal global ptr null, align 8
@.str.27 = private unnamed_addr constant [2 x i8] c"0\00", align 1
@.str.77 = private unnamed_addr constant [19 x i8] c"ctx = BN_CTX_new()\00", align 1
@.str.473 = private unnamed_addr constant [36 x i8] c"g = EC_GROUP_new_by_curve_name(nid)\00", align 1
@.str.474 = private unnamed_addr constant [39 x i8] c"p = EC_GROUP_get_ecparameters(g, NULL)\00", align 1
@.str.475 = private unnamed_addr constant [38 x i8] c"g = EC_GROUP_new_from_ecparameters(p)\00", align 1
@.str.476 = private unnamed_addr constant [44 x i8] c"rv = EC_GROUP_check_named_curve(g, 0, NULL)\00", align 1
@.str.477 = private unnamed_addr constant [36 x i8] c"ga = EC_GROUP_new_by_curve_name(rv)\00", align 1
@.str.478 = private unnamed_addr constant [41 x i8] c"pa = EC_GROUP_get_ecparameters(ga, NULL)\00", align 1
@.str.479 = private unnamed_addr constant [40 x i8] c"ga = EC_GROUP_new_from_ecparameters(pa)\00", align 1
@.str.480 = private unnamed_addr constant [25 x i8] c"EC_GROUP_cmp(g, ga, ctx)\00", align 1

; Function Attrs: nounwind uwtable
define internal i32 @check_named_curve_lookup_test(i32 noundef %0) #0 {
  %2 = alloca i32, align 4
  %3 = alloca i32, align 4
  %4 = alloca i32, align 4
  %5 = alloca i32, align 4
  %6 = alloca ptr, align 8
  %7 = alloca ptr, align 8
  %8 = alloca ptr, align 8
  %9 = alloca ptr, align 8
  %10 = alloca ptr, align 8
  store i32 %0, ptr %2, align 4, !tbaa !16
  call void @llvm.lifetime.start.p0(i64 4, ptr %3) #7
  store i32 0, ptr %3, align 4, !tbaa !16
  call void @llvm.lifetime.start.p0(i64 4, ptr %4) #7
  call void @llvm.lifetime.start.p0(i64 4, ptr %5) #7
  store i32 0, ptr %5, align 4, !tbaa !16
  call void @llvm.lifetime.start.p0(i64 8, ptr %6) #7
  store ptr null, ptr %6, align 8, !tbaa !10
  call void @llvm.lifetime.start.p0(i64 8, ptr %7) #7
  store ptr null, ptr %7, align 8, !tbaa !10
  call void @llvm.lifetime.start.p0(i64 8, ptr %8) #7
  store ptr null, ptr %8, align 8, !tbaa !12
  call void @llvm.lifetime.start.p0(i64 8, ptr %9) #7
  store ptr null, ptr %9, align 8, !tbaa !12
  call void @llvm.lifetime.start.p0(i64 8, ptr %10) #7
  store ptr null, ptr %10, align 8, !tbaa !20
  %11 = load ptr, ptr @curves, align 8, !tbaa !8
  %12 = load i32, ptr %2, align 4, !tbaa !16
  %13 = sext i32 %12 to i64
  %14 = getelementptr inbounds %struct.EC_builtin_curve, ptr %11, i64 %13
  %15 = getelementptr inbounds nuw %struct.EC_builtin_curve, ptr %14, i32 0, i32 0
  %16 = load i32, ptr %15, align 8, !tbaa !28
  store i32 %16, ptr %4, align 4, !tbaa !16
  %17 = call ptr @BN_CTX_new()
  store ptr %17, ptr %10, align 8, !tbaa !20
  %18 = call i32 @test_ptr(ptr noundef @.str, i32 noundef 1703, ptr noundef @.str.77, ptr noundef %17)
  %19 = icmp ne i32 %18, 0
  br i1 %19, label %20, label %30

20:                                               ; preds = %1
  %21 = load i32, ptr %4, align 4, !tbaa !16
  %22 = call ptr @EC_GROUP_new_by_curve_name(i32 noundef %21)
  store ptr %22, ptr %6, align 8, !tbaa !10
  %23 = call i32 @test_ptr(ptr noundef @.str, i32 noundef 1704, ptr noundef @.str.473, ptr noundef %22)
  %24 = icmp ne i32 %23, 0
  br i1 %24, label %25, label %30

25:                                               ; preds = %20
  %26 = load ptr, ptr %6, align 8, !tbaa !10
  %27 = call ptr @EC_GROUP_get_ecparameters(ptr noundef %26, ptr noundef null)
  store ptr %27, ptr %8, align 8, !tbaa !12
  %28 = call i32 @test_ptr(ptr noundef @.str, i32 noundef 1705, ptr noundef @.str.474, ptr noundef %27)
  %29 = icmp ne i32 %28, 0
  br i1 %29, label %31, label %30

30:                                               ; preds = %25, %20, %1
  br label %75

31:                                               ; preds = %25
  %32 = load ptr, ptr %6, align 8, !tbaa !10
  call void @EC_GROUP_free(ptr noundef %32)
  %33 = load ptr, ptr %8, align 8, !tbaa !12
  %34 = call ptr @EC_GROUP_new_from_ecparameters(ptr noundef %33)
  store ptr %34, ptr %6, align 8, !tbaa !10
  %35 = call i32 @test_ptr(ptr noundef @.str, i32 noundef 1710, ptr noundef @.str.475, ptr noundef %34)
  %36 = icmp ne i32 %35, 0
  br i1 %36, label %38, label %37

37:                                               ; preds = %31
  br label %75

38:                                               ; preds = %31
  %39 = load ptr, ptr %6, align 8, !tbaa !10
  %40 = call i32 @EC_GROUP_check_named_curve(ptr noundef %39, i32 noundef 0, ptr noundef null)
  store i32 %40, ptr %5, align 4, !tbaa !16
  %41 = call i32 @test_int_gt(ptr noundef @.str, i32 noundef 1713, ptr noundef @.str.476, ptr noundef @.str.27, i32 noundef %40, i32 noundef 0)
  %42 = icmp ne i32 %41, 0
  br i1 %42, label %44, label %43

43:                                               ; preds = %38
  br label %75

44:                                               ; preds = %38
  %45 = load i32, ptr %5, align 4, !tbaa !16
  %46 = load i32, ptr %4, align 4, !tbaa !16
  %47 = icmp ne i32 %45, %46
  br i1 %47, label %48, label %74

48:                                               ; preds = %44
  %49 = load i32, ptr %5, align 4, !tbaa !16
  %50 = call ptr @EC_GROUP_new_by_curve_name(i32 noundef %49)
  store ptr %50, ptr %7, align 8, !tbaa !10
  %51 = call i32 @test_ptr(ptr noundef @.str, i32 noundef 1725, ptr noundef @.str.477, ptr noundef %50)
  %52 = icmp ne i32 %51, 0
  br i1 %52, label %53, label %58

53:                                               ; preds = %48
  %54 = load ptr, ptr %7, align 8, !tbaa !10
  %55 = call ptr @EC_GROUP_get_ecparameters(ptr noundef %54, ptr noundef null)
  store ptr %55, ptr %9, align 8, !tbaa !12
  %56 = call i32 @test_ptr(ptr noundef @.str, i32 noundef 1726, ptr noundef @.str.478, ptr noundef %55)
  %57 = icmp ne i32 %56, 0
  br i1 %57, label %59, label %58

58:                                               ; preds = %53, %48
  br label %75

59:                                               ; preds = %53
  %60 = load ptr, ptr %7, align 8, !tbaa !10
  call void @EC_GROUP_free(ptr noundef %60)
  %61 = load ptr, ptr %9, align 8, !tbaa !12
  %62 = call ptr @EC_GROUP_new_from_ecparameters(ptr noundef %61)
  store ptr %62, ptr %7, align 8, !tbaa !10
  %63 = call i32 @test_ptr(ptr noundef @.str, i32 noundef 1731, ptr noundef @.str.479, ptr noundef %62)
  %64 = icmp ne i32 %63, 0
  br i1 %64, label %65, label %72

65:                                               ; preds = %59
  %66 = load ptr, ptr %6, align 8, !tbaa !10
  %67 = load ptr, ptr %7, align 8, !tbaa !10
  %68 = load ptr, ptr %10, align 8, !tbaa !20
  %69 = call i32 @EC_GROUP_cmp(ptr noundef %66, ptr noundef %67, ptr noundef %68)
  %70 = call i32 @test_int_eq(ptr noundef @.str, i32 noundef 1732, ptr noundef @.str.480, ptr noundef @.str.27, i32 noundef %69, i32 noundef 0)
  %71 = icmp ne i32 %70, 0
  br i1 %71, label %73, label %72

72:                                               ; preds = %65, %59
  br label %75

73:                                               ; preds = %65
  br label %74

74:                                               ; preds = %73, %44
  store i32 1, ptr %3, align 4, !tbaa !16
  br label %75

75:                                               ; preds = %74, %72, %58, %43, %37, %30
  %76 = load ptr, ptr %6, align 8, !tbaa !10
  call void @EC_GROUP_free(ptr noundef %76)
  %77 = load ptr, ptr %7, align 8, !tbaa !10
  call void @EC_GROUP_free(ptr noundef %77)
  %78 = load ptr, ptr %8, align 8, !tbaa !12
  call void @ECPARAMETERS_free(ptr noundef %78)
  %79 = load ptr, ptr %9, align 8, !tbaa !12
  call void @ECPARAMETERS_free(ptr noundef %79)
  %80 = load ptr, ptr %10, align 8, !tbaa !20
  call void @BN_CTX_free(ptr noundef %80)
  %81 = load i32, ptr %3, align 4, !tbaa !16
  call void @llvm.lifetime.end.p0(i64 8, ptr %10) #7
  call void @llvm.lifetime.end.p0(i64 8, ptr %9) #7
  call void @llvm.lifetime.end.p0(i64 8, ptr %8) #7
  call void @llvm.lifetime.end.p0(i64 8, ptr %7) #7
  call void @llvm.lifetime.end.p0(i64 8, ptr %6) #7
  call void @llvm.lifetime.end.p0(i64 4, ptr %5) #7
  call void @llvm.lifetime.end.p0(i64 4, ptr %4) #7
  call void @llvm.lifetime.end.p0(i64 4, ptr %3) #7
  ret i32 %81
}