; Function Attrs: nounwind uwtable
define internal range(i32 0, 2) i32 @check_named_curve_lookup_test(i32 noundef %0) #0 {
  %2 = load ptr, ptr @curves, align 8, !tbaa !8
  %3 = sext i32 %0 to i64
  %4 = getelementptr inbounds %struct.EC_builtin_curve, ptr %2, i64 %3
  %5 = load i32, ptr %4, align 8, !tbaa !16
  %6 = tail call ptr @BN_CTX_new() #7
  %7 = tail call i32 @test_ptr(ptr noundef nonnull @.str, i32 noundef 1703, ptr noundef nonnull @.str.77, ptr noundef %6) #7
  %.not = icmp eq i32 %7, 0
  br i1 %.not, label %33, label %8

8:                                                ; preds = %1
  %9 = tail call ptr @EC_GROUP_new_by_curve_name(i32 noundef %5) #7
  %10 = tail call i32 @test_ptr(ptr noundef nonnull @.str, i32 noundef 1704, ptr noundef nonnull @.str.473, ptr noundef %9) #7
  %.not26 = icmp eq i32 %10, 0
  br i1 %.not26, label %33, label %11

11:                                               ; preds = %8
  %12 = tail call ptr @EC_GROUP_get_ecparameters(ptr noundef %9, ptr noundef null) #7
  %13 = tail call i32 @test_ptr(ptr noundef nonnull @.str, i32 noundef 1705, ptr noundef nonnull @.str.474, ptr noundef %12) #7
  %.not27 = icmp eq i32 %13, 0
  br i1 %.not27, label %33, label %14

14:                                               ; preds = %11
  tail call void @EC_GROUP_free(ptr noundef %9) #7
  %15 = tail call ptr @EC_GROUP_new_from_ecparameters(ptr noundef %12) #7
  %16 = tail call i32 @test_ptr(ptr noundef nonnull @.str, i32 noundef 1710, ptr noundef nonnull @.str.475, ptr noundef %15) #7
  %.not28 = icmp eq i32 %16, 0
  br i1 %.not28, label %33, label %17

17:                                               ; preds = %14
  %18 = tail call i32 @EC_GROUP_check_named_curve(ptr noundef %15, i32 noundef 0, ptr noundef null) #7
  %19 = tail call i32 @test_int_gt(ptr noundef nonnull @.str, i32 noundef 1713, ptr noundef nonnull @.str.476, ptr noundef nonnull @.str.27, i32 noundef %18, i32 noundef 0) #7
  %.not29 = icmp eq i32 %19, 0
  br i1 %.not29, label %33, label %20

20:                                               ; preds = %17
  %.not30 = icmp eq i32 %18, %5
  br i1 %.not30, label %33, label %21

21:                                               ; preds = %20
  %22 = tail call ptr @EC_GROUP_new_by_curve_name(i32 noundef %18) #7
  %23 = tail call i32 @test_ptr(ptr noundef nonnull @.str, i32 noundef 1725, ptr noundef nonnull @.str.477, ptr noundef %22) #7
  %.not31 = icmp eq i32 %23, 0
  br i1 %.not31, label %33, label %24

24:                                               ; preds = %21
  %25 = tail call ptr @EC_GROUP_get_ecparameters(ptr noundef %22, ptr noundef null) #7
  %26 = tail call i32 @test_ptr(ptr noundef nonnull @.str, i32 noundef 1726, ptr noundef nonnull @.str.478, ptr noundef %25) #7
  %.not32 = icmp eq i32 %26, 0
  br i1 %.not32, label %33, label %27

27:                                               ; preds = %24
  tail call void @EC_GROUP_free(ptr noundef %22) #7
  %28 = tail call ptr @EC_GROUP_new_from_ecparameters(ptr noundef %25) #7
  %29 = tail call i32 @test_ptr(ptr noundef nonnull @.str, i32 noundef 1731, ptr noundef nonnull @.str.479, ptr noundef %28) #7
  %.not33 = icmp eq i32 %29, 0
  br i1 %.not33, label %33, label %30

30:                                               ; preds = %27
  %31 = tail call i32 @EC_GROUP_cmp(ptr noundef %15, ptr noundef %28, ptr noundef %6) #7
  %32 = tail call i32 @test_int_eq(ptr noundef nonnull @.str, i32 noundef 1732, ptr noundef nonnull @.str.480, ptr noundef nonnull @.str.27, i32 noundef %31, i32 noundef 0) #7
  %.not34 = icmp ne i32 %32, 0
  %spec.select = zext i1 %.not34 to i32
  br label %33

33:                                               ; preds = %30, %20, %27, %21, %24, %17, %14, %1, %8, %11
  %.024 = phi i32 [ 0, %27 ], [ 0, %24 ], [ 0, %21 ], [ 0, %17 ], [ 0, %14 ], [ 0, %11 ], [ 0, %8 ], [ 0, %1 ], [ 1, %20 ], [ %spec.select, %30 ]
  %.023 = phi ptr [ %15, %27 ], [ %15, %24 ], [ %15, %21 ], [ %15, %17 ], [ %15, %14 ], [ %9, %11 ], [ %9, %8 ], [ null, %1 ], [ %15, %20 ], [ %15, %30 ]
  %.021 = phi ptr [ %28, %27 ], [ %22, %24 ], [ %22, %21 ], [ null, %17 ], [ null, %14 ], [ null, %11 ], [ null, %8 ], [ null, %1 ], [ null, %20 ], [ %28, %30 ]
  %.020 = phi ptr [ %12, %27 ], [ %12, %24 ], [ %12, %21 ], [ %12, %17 ], [ %12, %14 ], [ %12, %11 ], [ null, %8 ], [ null, %1 ], [ %12, %20 ], [ %12, %30 ]
  %.0 = phi ptr [ %25, %27 ], [ %25, %24 ], [ null, %21 ], [ null, %17 ], [ null, %14 ], [ null, %11 ], [ null, %8 ], [ null, %1 ], [ null, %20 ], [ %25, %30 ]
  tail call void @EC_GROUP_free(ptr noundef %.023) #7
  tail call void @EC_GROUP_free(ptr noundef %.021) #7
  tail call void @ECPARAMETERS_free(ptr noundef %.020) #7
  tail call void @ECPARAMETERS_free(ptr noundef %.0) #7
  tail call void @BN_CTX_free(ptr noundef %6) #7
  ret i32 %.024
}